target datalayout = "e-m:e-p270:32:32-p271:32:32-p272:64:64-i64:64-i128:128-f80:128-n8:16:32:64-S128"
target triple = "x86_64-unknown-linux-gnu"

%struct.UEnumeration = type { ptr, ptr, ptr, ptr, ptr, ptr, ptr }
%"class.icu_75::LocalUResourceBundlePointer" = type { %"class.icu_75::LocalPointerBase" }
%"class.icu_75::LocalPointerBase" = type { ptr }
%"class.icu_75::UObject" = type { ptr }
%"struct.(anonymous namespace)::KeywordsSink" = type <{ %"class.icu_75::ResourceSink", ptr, i8, [7 x i8] }>
%"class.icu_75::ResourceSink" = type { %"class.icu_75::UObject" }

@.str = private unnamed_addr constant [14 x i8] c"icudt75l-coll\00", align 1
@_ZL13RESOURCE_NAME = internal constant [11 x i8] c"collations\00", align 1
@_ZL20defaultKeywordValues = internal constant %struct.UEnumeration { ptr null, ptr null, ptr @ulist_close_keyword_values_iterator_75, ptr @ulist_count_keyword_values_75, ptr @uenum_unextDefault_75, ptr @ulist_next_keyword_value_75, ptr @ulist_reset_keyword_values_iterator_75 }, align 8
@_ZTVN6icu_757UObjectE = external unnamed_addr constant { [5 x ptr] }, align 8
@_ZTVN6icu_7512ResourceSinkE = external unnamed_addr constant { [6 x ptr] }, align 8

; Function Attrs: mustprogress nounwind uwtable
define linkonce_odr void @_ZN6icu_757UObjectC2Ev(ptr noundef nonnull align 8 dereferenceable(8) %this) unnamed_addr #0 comdat align 2 {
entry:
  %this.addr = alloca ptr, align 8
  store ptr %this, ptr %this.addr, align 8
  %this1 = load ptr, ptr %this.addr, align 8
  store ptr getelementptr inbounds ({ [5 x ptr] }, ptr @_ZTVN6icu_757UObjectE, i32 0, i32 0, i32 2), ptr %this1, align 8
  ret void
}

; Function Attrs: mustprogress nounwind uwtable
define linkonce_odr void @_ZN6icu_7512ResourceSinkC2Ev(ptr noundef nonnull align 8 dereferenceable(8) %this) unnamed_addr #0 comdat align 2 {
entry:
  %this.addr = alloca ptr, align 8
  store ptr %this, ptr %this.addr, align 8
  %this1 = load ptr, ptr %this.addr, align 8
  call void @_ZN6icu_757UObjectC2Ev(ptr noundef nonnull align 8 dereferenceable(8) %this1) #9
  store ptr getelementptr inbounds ({ [6 x ptr] }, ptr @_ZTVN6icu_7512ResourceSinkE, i32 0, i32 0, i32 2), ptr %this1, align 8
  ret void
}

; Function Attrs: mustprogress nounwind uwtable
define linkonce_odr void @_ZN6icu_7516LocalPointerBaseI15UResourceBundleEC2EPS1_(ptr noundef nonnull align 8 dereferenceable(8) %this, ptr noundef %p) unnamed_addr #0 comdat align 2 {
entry:
  %this.addr = alloca ptr, align 8
  %p.addr = alloca ptr, align 8
  store ptr %this, ptr %this.addr, align 8
  store ptr %p, ptr %p.addr, align 8
  %this1 = load ptr, ptr %this.addr, align 8
  %ptr = getelementptr inbounds %"class.icu_75::LocalPointerBase", ptr %this1, i32 0, i32 0
  %0 = load ptr, ptr %p.addr, align 8
  store ptr %0, ptr %ptr, align 8
  ret void
}

; Function Attrs: mustprogress nounwind uwtable
define internal noundef signext i8 @_ZL9U_FAILURE10UErrorCode(i32 noundef %code) #0 {
entry:
  %code.addr = alloca i32, align 4
  store i32 %code, ptr %code.addr, align 4
  %0 = load i32, ptr %code.addr, align 4
  %cmp = icmp sgt i32 %0, 0
  %conv = zext i1 %cmp to i8
  ret i8 %conv
}

; Function Attrs: mustprogress nounwind uwtable
define linkonce_odr noundef ptr @_ZNK6icu_7516LocalPointerBaseI15UResourceBundleE8getAliasEv(ptr noundef nonnull align 8 dereferenceable(8) %this) #0 comdat align 2 {
entry:
  %this.addr = alloca ptr, align 8
  store ptr %this, ptr %this.addr, align 8
  %this1 = load ptr, ptr %this.addr, align 8
  %ptr = getelementptr inbounds %"class.icu_75::LocalPointerBase", ptr %this1, i32 0, i32 0
  %0 = load ptr, ptr %ptr, align 8
  ret ptr %0
}

; Function Attrs: mustprogress uwtable
define internal void @_ZN12_GLOBAL__N_112KeywordsSinkC2ER10UErrorCode(ptr noundef nonnull align 8 dereferenceable(17) %this, ptr noundef nonnull align 4 dereferenceable(4) %errorCode) unnamed_addr #1 align 2 personality ptr @__gxx_personality_v0 {
entry:
  %this.addr = alloca ptr, align 8
  %errorCode.addr = alloca ptr, align 8
  %exn.slot = alloca ptr, align 8
  %ehselector.slot = alloca i32, align 4
  store ptr %this, ptr %this.addr, align 8
  store ptr %errorCode, ptr %errorCode.addr, align 8
  %this1 = load ptr, ptr %this.addr, align 8
  call void @_ZN6icu_7512ResourceSinkC2Ev(ptr noundef nonnull align 8 dereferenceable(8) %this1)
  store ptr getelementptr inbounds ({ [6 x ptr] }, ptr @_ZTVN12_GLOBAL__N_112KeywordsSinkE, i32 0, i32 0, i32 2), ptr %this1, align 8
  %values = getelementptr inbounds %"struct.(anonymous namespace)::KeywordsSink", ptr %this1, i32 0, i32 1
  %0 = load ptr, ptr %errorCode.addr, align 8
  %call = invoke ptr @ulist_createEmptyList_75(ptr noundef %0)
          to label %invoke.cont unwind label %lpad

invoke.cont:                                      ; preds = %entry
  store ptr %call, ptr %values, align 8
  %hasDefault = getelementptr inbounds %"struct.(anonymous namespace)::KeywordsSink", ptr %this1, i32 0, i32 2
  store i8 0, ptr %hasDefault, align 8
  ret void

lpad:                                             ; preds = %entry
  %1 = landingpad { ptr, i32 }
          cleanup
  %2 = extractvalue { ptr, i32 } %1, 0
  store ptr %2, ptr %exn.slot, align 8
  %3 = extractvalue { ptr, i32 } %1, 1
  store i32 %3, ptr %ehselector.slot, align 4
  call void @_ZN6icu_7512ResourceSinkD2Ev(ptr noundef nonnull align 8 dereferenceable(8) %this1) #9
  br label %eh.resume

eh.resume:                                        ; preds = %lpad
  %exn = load ptr, ptr %exn.slot, align 8
  %sel = load i32, ptr %ehselector.slot, align 4
  %lpad.val = insertvalue { ptr, i32 } poison, ptr %exn, 0
  %lpad.val2 = insertvalue { ptr, i32 } %lpad.val, i32 %sel, 1
  resume { ptr, i32 } %lpad.val2
}

; Function Attrs: mustprogress uwtable
define linkonce_odr void @_ZN6icu_7527LocalUResourceBundlePointerC2EP15UResourceBundle(ptr noundef nonnull align 8 dereferenceable(8) %this, ptr noundef %p) unnamed_addr #1 comdat align 2 {
entry:
  %this.addr = alloca ptr, align 8
  %p.addr = alloca ptr, align 8
  store ptr %this, ptr %this.addr, align 8
  store ptr %p, ptr %p.addr, align 8
  %this1 = load ptr, ptr %this.addr, align 8
  %0 = load ptr, ptr %p.addr, align 8
  call void @_ZN6icu_7516LocalPointerBaseI15UResourceBundleEC2EPS1_(ptr noundef nonnull align 8 dereferenceable(8) %this1, ptr noundef %0)
  ret void
}

; Function Attrs: mustprogress uwtable
define ptr @ucol_getKeywordValuesForLocale_75(ptr noundef %0, ptr noundef %locale, i8 noundef signext %1, ptr noundef %status) #1 personality ptr @__gxx_personality_v0 {
entry:
  %retval = alloca ptr, align 8
  %.addr = alloca ptr, align 8
  %locale.addr = alloca ptr, align 8
  %.addr1 = alloca i8, align 1
  %status.addr = alloca ptr, align 8
  %bundle = alloca %"class.icu_75::LocalUResourceBundlePointer", align 8
  %sink = alloca %"struct.(anonymous namespace)::KeywordsSink", align 8
  %exn.slot = alloca ptr, align 8
  %ehselector.slot = alloca i32, align 4
  %cleanup.dest.slot = alloca i32, align 4
  %en = alloca ptr, align 8
  store ptr %0, ptr %.addr, align 8
  store ptr %locale, ptr %locale.addr, align 8
  store i8 %1, ptr %.addr1, align 1
  store ptr %status, ptr %status.addr, align 8
  %2 = load ptr, ptr %locale.addr, align 8
  %3 = load ptr, ptr %status.addr, align 8
  %call = call ptr @ures_open_75(ptr noundef @.str, ptr noundef %2, ptr noundef %3)
  call void @_ZN6icu_7527LocalUResourceBundlePointerC2EP15UResourceBundle(ptr noundef nonnull align 8 dereferenceable(8) %bundle, ptr noundef %call)
  %4 = load ptr, ptr %status.addr, align 8
  invoke void @_ZN12_GLOBAL__N_112KeywordsSinkC2ER10UErrorCode(ptr noundef nonnull align 8 dereferenceable(17) %sink, ptr noundef nonnull align 4 dereferenceable(4) %4)
          to label %invoke.cont unwind label %lpad

invoke.cont:                                      ; preds = %entry
  %call4 = invoke noundef ptr @_ZNK6icu_7516LocalPointerBaseI15UResourceBundleE8getAliasEv(ptr noundef nonnull align 8 dereferenceable(8) %bundle)
          to label %invoke.cont3 unwind label %lpad2

invoke.cont3:                                     ; preds = %invoke.cont
  %5 = load ptr, ptr %status.addr, align 8
  invoke void @ures_getAllItemsWithFallback_75(ptr noundef %call4, ptr noundef @_ZL13RESOURCE_NAME, ptr noundef nonnull align 8 dereferenceable(8) %sink, ptr noundef nonnull align 4 dereferenceable(4) %5)
          to label %invoke.cont5 unwind label %lpad2

invoke.cont5:                                     ; preds = %invoke.cont3
  %6 = load ptr, ptr %status.addr, align 8
  %7 = load i32, ptr %6, align 4
  %call7 = invoke noundef signext i8 @_ZL9U_FAILURE10UErrorCode(i32 noundef %7)
          to label %invoke.cont6 unwind label %lpad2

invoke.cont6:                                     ; preds = %invoke.cont5
  %tobool = icmp ne i8 %call7, 0
  br i1 %tobool, label %if.then, label %if.end

if.then:                                          ; preds = %invoke.cont6
  store ptr null, ptr %retval, align 8
  store i32 1, ptr %cleanup.dest.slot, align 4
  br label %cleanup

lpad:                                             ; preds = %entry
  %8 = landingpad { ptr, i32 }
          cleanup
  %9 = extractvalue { ptr, i32 } %8, 0
  store ptr %9, ptr %exn.slot, align 8
  %10 = extractvalue { ptr, i32 } %8, 1
  store i32 %10, ptr %ehselector.slot, align 4
  br label %ehcleanup

lpad2:                                            ; preds = %if.end11, %if.end, %invoke.cont5, %invoke.cont3, %invoke.cont
  %11 = landingpad { ptr, i32 }
          cleanup
  %12 = extractvalue { ptr, i32 } %11, 0
  store ptr %12, ptr %exn.slot, align 8
  %13 = extractvalue { ptr, i32 } %11, 1
  store i32 %13, ptr %ehselector.slot, align 4
  call void @_ZN12_GLOBAL__N_112KeywordsSinkD2Ev(ptr noundef nonnull align 8 dereferenceable(17) %sink) #9
  br label %ehcleanup

if.end:                                           ; preds = %invoke.cont6
  %call9 = invoke noalias ptr @uprv_malloc_75(i64 noundef 56) #10
          to label %invoke.cont8 unwind label %lpad2

invoke.cont8:                                     ; preds = %if.end
  store ptr %call9, ptr %en, align 8
  %14 = load ptr, ptr %en, align 8
  %cmp = icmp eq ptr %14, null
  br i1 %cmp, label %if.then10, label %if.end11

if.then10:                                        ; preds = %invoke.cont8
  %15 = load ptr, ptr %status.addr, align 8
  store i32 7, ptr %15, align 4
  store ptr null, ptr %retval, align 8
  store i32 1, ptr %cleanup.dest.slot, align 4
  br label %cleanup

if.end11:                                         ; preds = %invoke.cont8
  %16 = load ptr, ptr %en, align 8
  call void @llvm.memcpy.p0.p0.i64(ptr align 8 %16, ptr align 8 @_ZL20defaultKeywordValues, i64 56, i1 false)
  %values = getelementptr inbounds %"struct.(anonymous namespace)::KeywordsSink", ptr %sink, i32 0, i32 1
  %17 = load ptr, ptr %values, align 8
  invoke void @ulist_resetList_75(ptr noundef %17)
          to label %invoke.cont12 unwind label %lpad2

invoke.cont12:                                    ; preds = %if.end11
  %values13 = getelementptr inbounds %"struct.(anonymous namespace)::KeywordsSink", ptr %sink, i32 0, i32 1
  %18 = load ptr, ptr %values13, align 8
  %19 = load ptr, ptr %en, align 8
  %context = getelementptr inbounds %struct.UEnumeration, ptr %19, i32 0, i32 1
  store ptr %18, ptr %context, align 8
  %values14 = getelementptr inbounds %"struct.(anonymous namespace)::KeywordsSink", ptr %sink, i32 0, i32 1
  store ptr null, ptr %values14, align 8
  %20 = load ptr, ptr %en, align 8
  store ptr %20, ptr %retval, align 8
  store i32 1, ptr %cleanup.dest.slot, align 4
  br label %cleanup

cleanup:                                          ; preds = %invoke.cont12, %if.then10, %if.then
  call void @_ZN12_GLOBAL__N_112KeywordsSinkD2Ev(ptr noundef nonnull align 8 dereferenceable(17) %sink) #9
  call void @_ZN6icu_7527LocalUResourceBundlePointerD2Ev(ptr noundef nonnull align 8 dereferenceable(8) %bundle) #9
  %21 = load ptr, ptr %retval, align 8
  ret ptr %21

ehcleanup:                                        ; preds = %lpad2, %lpad
  call void @_ZN6icu_7527LocalUResourceBundlePointerD2Ev(ptr noundef nonnull align 8 dereferenceable(8) %bundle) #9
  br label %eh.resume

eh.resume:                                        ; preds = %ehcleanup
  %exn = load ptr, ptr %exn.slot, align 8
  %sel = load i32, ptr %ehselector.slot, align 4
  %lpad.val = insertvalue { ptr, i32 } poison, ptr %exn, 0
  %lpad.val16 = insertvalue { ptr, i32 } %lpad.val, i32 %sel, 1
  resume { ptr, i32 } %lpad.val16
}