; Function Attrs: mustprogress uwtable
define noalias noundef ptr @ucol_getKeywordValuesForLocale_75(ptr nocapture noundef readnone %0, ptr noundef %locale, i8 noundef signext %1, ptr noundef %status) local_unnamed_addr #1 personality ptr @__gxx_personality_v0 {
entry:
  %bundle = alloca %"class.icu_75::LocalUResourceBundlePointer", align 8
  %sink = alloca %"struct.(anonymous namespace)::KeywordsSink", align 8
  %call = tail call ptr @ures_open_75(ptr noundef nonnull @.str, ptr noundef %locale, ptr noundef %status)
  store ptr %call, ptr %bundle, align 8
  store ptr getelementptr inbounds ({ [6 x ptr] }, ptr @_ZTVN12_GLOBAL__N_112KeywordsSinkE, i64 0, i32 0, i64 2), ptr %sink, align 8
  %call.i = invoke ptr @ulist_createEmptyList_75(ptr noundef nonnull %status)
          to label %invoke.cont unwind label %lpad.i

lpad.i:                                           ; preds = %entry
  %2 = landingpad { ptr, i32 }
          cleanup
  call void @_ZN6icu_7512ResourceSinkD2Ev(ptr noundef nonnull align 8 dereferenceable(8) %sink) #13
  br label %ehcleanup

invoke.cont:                                      ; preds = %entry
  %values.i = getelementptr inbounds i8, ptr %sink, i64 8
  store ptr %call.i, ptr %values.i, align 8
  %hasDefault.i = getelementptr inbounds i8, ptr %sink, i64 16
  store i8 0, ptr %hasDefault.i, align 8
  invoke void @ures_getAllItemsWithFallback_75(ptr noundef %call, ptr noundef nonnull @.str.3, ptr noundef nonnull align 8 dereferenceable(8) %sink, ptr noundef nonnull align 4 dereferenceable(4) %status)
          to label %invoke.cont5 unwind label %lpad2

invoke.cont5:                                     ; preds = %invoke.cont
  %3 = load i32, ptr %status, align 4
  %cmp.i = icmp slt i32 %3, 1
  br i1 %cmp.i, label %if.end, label %cleanup

lpad2:                                            ; preds = %if.end11, %if.end, %invoke.cont
  %4 = landingpad { ptr, i32 }
          cleanup
  call void @_ZN12_GLOBAL__N_112KeywordsSinkD2Ev(ptr noundef nonnull align 8 dereferenceable(17) %sink) #13
  br label %ehcleanup

if.end:                                           ; preds = %invoke.cont5
  %call9 = invoke noalias dereferenceable_or_null(56) ptr @uprv_malloc_75(i64 noundef 56) #14
          to label %invoke.cont8 unwind label %lpad2

invoke.cont8:                                     ; preds = %if.end
  %cmp = icmp eq ptr %call9, null
  br i1 %cmp, label %if.then10, label %if.end11

if.then10:                                        ; preds = %invoke.cont8
  store i32 7, ptr %status, align 4
  br label %cleanup

if.end11:                                         ; preds = %invoke.cont8
  call void @llvm.memcpy.p0.p0.i64(ptr noundef nonnull align 8 dereferenceable(56) %call9, ptr noundef nonnull align 8 dereferenceable(56) @_ZL20defaultKeywordValues, i64 56, i1 false)
  %5 = load ptr, ptr %values.i, align 8
  invoke void @ulist_resetList_75(ptr noundef %5)
          to label %invoke.cont12 unwind label %lpad2

invoke.cont12:                                    ; preds = %if.end11
  %6 = load ptr, ptr %values.i, align 8
  %context = getelementptr inbounds i8, ptr %call9, i64 8
  store ptr %6, ptr %context, align 8
  store ptr null, ptr %values.i, align 8
  br label %cleanup

cleanup:                                          ; preds = %invoke.cont5, %invoke.cont12, %if.then10
  %retval.0 = phi ptr [ null, %if.then10 ], [ %call9, %invoke.cont12 ], [ null, %invoke.cont5 ]
  store ptr getelementptr inbounds ({ [6 x ptr] }, ptr @_ZTVN12_GLOBAL__N_112KeywordsSinkE, i64 0, i32 0, i64 2), ptr %sink, align 8
  %7 = load ptr, ptr %values.i, align 8
  invoke void @ulist_deleteList_75(ptr noundef %7)
          to label %_ZN12_GLOBAL__N_112KeywordsSinkD2Ev.exit unwind label %terminate.lpad.i

terminate.lpad.i:                                 ; preds = %cleanup
  %8 = landingpad { ptr, i32 }
          catch ptr null
  %9 = extractvalue { ptr, i32 } %8, 0
  call void @__clang_call_terminate(ptr %9) #15
  unreachable

_ZN12_GLOBAL__N_112KeywordsSinkD2Ev.exit:         ; preds = %cleanup
  call void @_ZN6icu_7512ResourceSinkD2Ev(ptr noundef nonnull align 8 dereferenceable(8) %sink) #13
  %cmp.not.i = icmp eq ptr %call, null
  br i1 %cmp.not.i, label %_ZN6icu_7527LocalUResourceBundlePointerD2Ev.exit, label %if.then.i

if.then.i:                                        ; preds = %_ZN12_GLOBAL__N_112KeywordsSinkD2Ev.exit
  invoke void @ures_close_75(ptr noundef nonnull %call)
          to label %_ZN6icu_7527LocalUResourceBundlePointerD2Ev.exit unwind label %terminate.lpad.i10

terminate.lpad.i10:                               ; preds = %if.then.i
  %10 = landingpad { ptr, i32 }
          catch ptr null
  %11 = extractvalue { ptr, i32 } %10, 0
  call void @__clang_call_terminate(ptr %11) #15
  unreachable

_ZN6icu_7527LocalUResourceBundlePointerD2Ev.exit: ; preds = %_ZN12_GLOBAL__N_112KeywordsSinkD2Ev.exit, %if.then.i
  ret ptr %retval.0

ehcleanup:                                        ; preds = %lpad.i, %lpad2
  %.pn = phi { ptr, i32 } [ %4, %lpad2 ], [ %2, %lpad.i ]
  call void @_ZN6icu_7527LocalUResourceBundlePointerD2Ev(ptr noundef nonnull align 8 dereferenceable(8) %bundle) #13
  resume { ptr, i32 } %.pn
}